target datalayout = "e-m:e-p270:32:32-p271:32:32-p272:64:64-i64:64-i128:128-f80:128-n8:16:32:64-S128"
target triple = "x86_64-pc-linux-gnu"

%"class.cv::gapi::own::Latch" = type { i64, %"class.std::mutex", %"class.std::condition_variable" }
%"class.std::mutex" = type { %"class.std::__mutex_base" }
%"class.std::__mutex_base" = type { %union.pthread_mutex_t }
%union.pthread_mutex_t = type { %struct.__pthread_mutex_s }
%struct.__pthread_mutex_s = type { i32, i32, i32, i32, i32, i16, i16, %struct.__pthread_internal_list }
%struct.__pthread_internal_list = type { ptr, ptr }
%"class.std::condition_variable" = type { %"class.std::__condvar" }
%"class.std::__condvar" = type { %union.pthread_cond_t }
%union.pthread_cond_t = type { %struct.__pthread_cond_s }
%struct.__pthread_cond_s = type { %union.__atomic_wide_counter, %union.__atomic_wide_counter, [2 x i32], [2 x i32], i32, i32, [2 x i32] }
%union.__atomic_wide_counter = type { i64 }
%"class.std::unique_lock" = type <{ ptr, i8, [7 x i8] }>

; Function Attrs: inlinehint mustprogress nounwind uwtable
define internal noundef i32 @_ZL18__gthread_active_pv() #5 {
  ret i32 1
}

; Function Attrs: inlinehint mustprogress nounwind uwtable
define internal noundef i32 @_ZL22__gthread_mutex_unlockP15pthread_mutex_t(ptr noundef %0) #5 {
  %2 = alloca i32, align 4
  %3 = alloca ptr, align 8
  store ptr %0, ptr %3, align 8, !tbaa !58
  %4 = call noundef i32 @_ZL18__gthread_active_pv()
  %5 = icmp ne i32 %4, 0
  br i1 %5, label %6, label %9

6:                                                ; preds = %1
  %7 = load ptr, ptr %3, align 8, !tbaa !58
  %8 = call i32 @pthread_mutex_unlock(ptr noundef %7) #16
  store i32 %8, ptr %2, align 4
  br label %10

9:                                                ; preds = %1
  store i32 0, ptr %2, align 4
  br label %10

10:                                               ; preds = %9, %6
  %11 = load i32, ptr %2, align 4
  ret i32 %11
}

; Function Attrs: inlinehint mustprogress uwtable
define internal noundef i32 @_ZL20__gthread_mutex_lockP15pthread_mutex_t(ptr noundef %0) #8 {
  %2 = alloca i32, align 4
  %3 = alloca ptr, align 8
  store ptr %0, ptr %3, align 8, !tbaa !58
  %4 = call noundef i32 @_ZL18__gthread_active_pv()
  %5 = icmp ne i32 %4, 0
  br i1 %5, label %6, label %9

6:                                                ; preds = %1
  %7 = load ptr, ptr %3, align 8, !tbaa !58
  %8 = call i32 @pthread_mutex_lock(ptr noundef %7) #16
  store i32 %8, ptr %2, align 4
  br label %10

9:                                                ; preds = %1
  store i32 0, ptr %2, align 4
  br label %10

10:                                               ; preds = %9, %6
  %11 = load i32, ptr %2, align 4
  ret i32 %11
}

; Function Attrs: mustprogress uwtable
define linkonce_odr hidden void @_ZNSt5mutex6unlockEv(ptr noundef nonnull align 8 dereferenceable(40) %0) #2 comdat align 2 {
  %2 = alloca ptr, align 8
  store ptr %0, ptr %2, align 8, !tbaa !16
  %3 = load ptr, ptr %2, align 8
  %4 = getelementptr inbounds nuw %"class.std::__mutex_base", ptr %3, i32 0, i32 0
  %5 = call noundef i32 @_ZL22__gthread_mutex_unlockP15pthread_mutex_t(ptr noundef %4)
  ret void
}

; Function Attrs: mustprogress uwtable
define linkonce_odr hidden void @_ZNSt5mutex4lockEv(ptr noundef nonnull align 8 dereferenceable(40) %0) #2 comdat align 2 {
  %2 = alloca ptr, align 8
  %3 = alloca i32, align 4
  store ptr %0, ptr %2, align 8, !tbaa !16
  %4 = load ptr, ptr %2, align 8
  call void @llvm.lifetime.start.p0(i64 4, ptr %3) #16
  %5 = getelementptr inbounds nuw %"class.std::__mutex_base", ptr %4, i32 0, i32 0
  %6 = call noundef i32 @_ZL20__gthread_mutex_lockP15pthread_mutex_t(ptr noundef %5)
  store i32 %6, ptr %3, align 4, !tbaa !34
  %7 = load i32, ptr %3, align 4, !tbaa !34
  %8 = icmp ne i32 %7, 0
  br i1 %8, label %9, label %11

9:                                                ; preds = %1
  %10 = load i32, ptr %3, align 4, !tbaa !34
  call void @_ZSt20__throw_system_errori(i32 noundef %10) #18
  unreachable

11:                                               ; preds = %1
  call void @llvm.lifetime.end.p0(i64 4, ptr %3) #16
  ret void
}

; Function Attrs: noinline noreturn nounwind uwtable
define linkonce_odr hidden void @__clang_call_terminate(ptr noundef %0) #6 comdat {
  %2 = call ptr @__cxa_begin_catch(ptr %0) #16
  call void @_ZSt9terminatev() #17
  unreachable
}

; Function Attrs: mustprogress uwtable
define linkonce_odr hidden void @_ZNSt11unique_lockISt5mutexE6unlockEv(ptr noundef nonnull align 8 dereferenceable(9) %0) #2 comdat align 2 {
  %2 = alloca ptr, align 8
  store ptr %0, ptr %2, align 8, !tbaa !24
  %3 = load ptr, ptr %2, align 8
  %4 = getelementptr inbounds nuw %"class.std::unique_lock", ptr %3, i32 0, i32 1
  %5 = load i8, ptr %4, align 8, !tbaa !29, !range !30, !noundef !31
  %6 = trunc i8 %5 to i1
  br i1 %6, label %8, label %7

7:                                                ; preds = %1
  call void @_ZSt20__throw_system_errori(i32 noundef 1) #18
  unreachable

8:                                                ; preds = %1
  %9 = getelementptr inbounds nuw %"class.std::unique_lock", ptr %3, i32 0, i32 0
  %10 = load ptr, ptr %9, align 8, !tbaa !26
  %11 = icmp ne ptr %10, null
  br i1 %11, label %12, label %16

12:                                               ; preds = %8
  %13 = getelementptr inbounds nuw %"class.std::unique_lock", ptr %3, i32 0, i32 0
  %14 = load ptr, ptr %13, align 8, !tbaa !26
  call void @_ZNSt5mutex6unlockEv(ptr noundef nonnull align 8 dereferenceable(40) %14)
  %15 = getelementptr inbounds nuw %"class.std::unique_lock", ptr %3, i32 0, i32 1
  store i8 0, ptr %15, align 8, !tbaa !29
  br label %16

16:                                               ; preds = %12, %8
  br label %17

17:                                               ; preds = %16
  ret void
}

; Function Attrs: mustprogress uwtable
define linkonce_odr hidden void @_ZNSt11unique_lockISt5mutexE4lockEv(ptr noundef nonnull align 8 dereferenceable(9) %0) #2 comdat align 2 {
  %2 = alloca ptr, align 8
  store ptr %0, ptr %2, align 8, !tbaa !24
  %3 = load ptr, ptr %2, align 8
  %4 = getelementptr inbounds nuw %"class.std::unique_lock", ptr %3, i32 0, i32 0
  %5 = load ptr, ptr %4, align 8, !tbaa !26
  %6 = icmp ne ptr %5, null
  br i1 %6, label %8, label %7

7:                                                ; preds = %1
  call void @_ZSt20__throw_system_errori(i32 noundef 1) #18
  unreachable

8:                                                ; preds = %1
  %9 = getelementptr inbounds nuw %"class.std::unique_lock", ptr %3, i32 0, i32 1
  %10 = load i8, ptr %9, align 8, !tbaa !29, !range !30, !noundef !31
  %11 = trunc i8 %10 to i1
  br i1 %11, label %12, label %13

12:                                               ; preds = %8
  call void @_ZSt20__throw_system_errori(i32 noundef 35) #18
  unreachable

13:                                               ; preds = %8
  %14 = getelementptr inbounds nuw %"class.std::unique_lock", ptr %3, i32 0, i32 0
  %15 = load ptr, ptr %14, align 8, !tbaa !26
  call void @_ZNSt5mutex4lockEv(ptr noundef nonnull align 8 dereferenceable(40) %15)
  %16 = getelementptr inbounds nuw %"class.std::unique_lock", ptr %3, i32 0, i32 1
  store i8 1, ptr %16, align 8, !tbaa !29
  br label %17

17:                                               ; preds = %13
  br label %18

18:                                               ; preds = %17
  ret void
}

; Function Attrs: mustprogress nounwind uwtable
define linkonce_odr hidden void @_ZNSt11unique_lockISt5mutexED2Ev(ptr noundef nonnull align 8 dereferenceable(9) %0) unnamed_addr #0 comdat align 2 personality ptr @__gxx_personality_v0 {
  %2 = alloca ptr, align 8
  store ptr %0, ptr %2, align 8, !tbaa !24
  %3 = load ptr, ptr %2, align 8
  %4 = getelementptr inbounds nuw %"class.std::unique_lock", ptr %3, i32 0, i32 1
  %5 = load i8, ptr %4, align 8, !tbaa !29, !range !30, !noundef !31
  %6 = trunc i8 %5 to i1
  br i1 %6, label %7, label %9

7:                                                ; preds = %1
  invoke void @_ZNSt11unique_lockISt5mutexE6unlockEv(ptr noundef nonnull align 8 dereferenceable(9) %3)
          to label %8 unwind label %10

8:                                                ; preds = %7
  br label %9

9:                                                ; preds = %8, %1
  ret void

10:                                               ; preds = %7
  %11 = landingpad { ptr, i32 }
          catch ptr null
  %12 = extractvalue { ptr, i32 } %11, 0
  call void @__clang_call_terminate(ptr %12) #17
  unreachable
}

; Function Attrs: mustprogress uwtable
define linkonce_odr hidden void @_ZNSt11unique_lockISt5mutexEC2ERS0_(ptr noundef nonnull align 8 dereferenceable(9) %0, ptr noundef nonnull align 8 dereferenceable(40) %1) unnamed_addr #2 comdat align 2 {
  %3 = alloca ptr, align 8
  %4 = alloca ptr, align 8
  store ptr %0, ptr %3, align 8, !tbaa !24
  store ptr %1, ptr %4, align 8, !tbaa !16
  %5 = load ptr, ptr %3, align 8
  %6 = getelementptr inbounds nuw %"class.std::unique_lock", ptr %5, i32 0, i32 0
  %7 = load ptr, ptr %4, align 8, !tbaa !16
  store ptr %7, ptr %6, align 8, !tbaa !26
  %8 = getelementptr inbounds nuw %"class.std::unique_lock", ptr %5, i32 0, i32 1
  store i8 0, ptr %8, align 8, !tbaa !29
  call void @_ZNSt11unique_lockISt5mutexE4lockEv(ptr noundef nonnull align 8 dereferenceable(9) %5)
  %9 = getelementptr inbounds nuw %"class.std::unique_lock", ptr %5, i32 0, i32 1
  store i8 1, ptr %9, align 8, !tbaa !29
  ret void
}

; Function Attrs: mustprogress uwtable
define void @_ZN2cv4gapi3own5Latch4waitEv(ptr noundef nonnull align 8 dereferenceable(96) %0) #2 align 2 personality ptr @__gxx_personality_v0 {
  %2 = alloca ptr, align 8
  %3 = alloca %"class.std::unique_lock", align 8
  %4 = alloca ptr, align 8
  %5 = alloca i32, align 4
  store ptr %0, ptr %2, align 8, !tbaa !3
  %6 = load ptr, ptr %2, align 8
  call void @llvm.lifetime.start.p0(i64 16, ptr %3) #16
  %7 = getelementptr inbounds nuw %"class.cv::gapi::own::Latch", ptr %6, i32 0, i32 1
  call void @_ZNSt11unique_lockISt5mutexEC2ERS0_(ptr noundef nonnull align 8 dereferenceable(9) %3, ptr noundef nonnull align 8 dereferenceable(40) %7)
  br label %8

8:                                                ; preds = %14, %1
  %9 = getelementptr inbounds nuw %"class.cv::gapi::own::Latch", ptr %6, i32 0, i32 0
  %10 = load i64, ptr %9, align 8, !tbaa !10
  %11 = icmp ne i64 %10, 0
  br i1 %11, label %12, label %19

12:                                               ; preds = %8
  %13 = getelementptr inbounds nuw %"class.cv::gapi::own::Latch", ptr %6, i32 0, i32 2
  invoke void @_ZNSt18condition_variable4waitERSt11unique_lockISt5mutexE(ptr noundef nonnull align 8 dereferenceable(48) %13, ptr noundef nonnull align 8 dereferenceable(9) %3)
          to label %14 unwind label %15

14:                                               ; preds = %12
  br label %8, !llvm.loop !22

15:                                               ; preds = %12
  %16 = landingpad { ptr, i32 }
          cleanup
  %17 = extractvalue { ptr, i32 } %16, 0
  store ptr %17, ptr %4, align 8
  %18 = extractvalue { ptr, i32 } %16, 1
  store i32 %18, ptr %5, align 4
  call void @_ZNSt11unique_lockISt5mutexED2Ev(ptr noundef nonnull align 8 dereferenceable(9) %3) #16
  call void @llvm.lifetime.end.p0(i64 16, ptr %3) #16
  br label %20

19:                                               ; preds = %8
  call void @_ZNSt11unique_lockISt5mutexED2Ev(ptr noundef nonnull align 8 dereferenceable(9) %3) #16
  call void @llvm.lifetime.end.p0(i64 16, ptr %3) #16
  ret void

20:                                               ; preds = %15
  %21 = load ptr, ptr %4, align 8
  %22 = load i32, ptr %5, align 4
  %23 = insertvalue { ptr, i32 } poison, ptr %21, 0
  %24 = insertvalue { ptr, i32 } %23, i32 %22, 1
  resume { ptr, i32 } %24
}