; Function Attrs: mustprogress uwtable
define void @_ZN2cv4gapi3own5Latch4waitEv(ptr noundef nonnull align 8 dereferenceable(96) %0) local_unnamed_addr #2 align 2 personality ptr @__gxx_personality_v0 {
  %2 = alloca %"class.std::unique_lock", align 8
  call void @llvm.lifetime.start.p0(i64 16, ptr nonnull %2) #16
  %3 = getelementptr inbounds nuw i8, ptr %0, i64 8
  store ptr %3, ptr %2, align 8, !tbaa !12
  %4 = getelementptr inbounds nuw i8, ptr %2, i64 8
  %5 = tail call noundef i32 @pthread_mutex_lock(ptr noundef nonnull align 8 dereferenceable(40) %3) #16
  %.not.i.i.i = icmp eq i32 %5, 0
  br i1 %.not.i.i.i, label %_ZNSt11unique_lockISt5mutexEC2ERS0_.exit, label %6

6:                                                ; preds = %1
  tail call void @_ZSt20__throw_system_errori(i32 noundef %5) #17
  unreachable

_ZNSt11unique_lockISt5mutexEC2ERS0_.exit:         ; preds = %1
  store i8 1, ptr %4, align 8, !tbaa !17
  %7 = getelementptr inbounds nuw i8, ptr %0, i64 48
  br label %8

8:                                                ; preds = %10, %_ZNSt11unique_lockISt5mutexEC2ERS0_.exit
  %9 = load i64, ptr %0, align 8, !tbaa !3
  %.not = icmp eq i64 %9, 0
  br i1 %.not, label %19, label %10

10:                                               ; preds = %8
  invoke void @_ZNSt18condition_variable4waitERSt11unique_lockISt5mutexE(ptr noundef nonnull align 8 dereferenceable(48) %7, ptr noundef nonnull align 8 dereferenceable(9) %2)
          to label %8 unwind label %11, !llvm.loop !18

11:                                               ; preds = %10
  %12 = landingpad { ptr, i32 }
          cleanup
  %13 = load i8, ptr %4, align 8, !tbaa !17, !range !20, !noundef !21
  %14 = trunc nuw i8 %13 to i1
  br i1 %14, label %15, label %_ZNSt11unique_lockISt5mutexED2Ev.exit

15:                                               ; preds = %11
  %16 = load ptr, ptr %2, align 8, !tbaa !12
  %.not.i.i = icmp eq ptr %16, null
  br i1 %.not.i.i, label %_ZNSt11unique_lockISt5mutexED2Ev.exit, label %17

17:                                               ; preds = %15
  %18 = call noundef i32 @pthread_mutex_unlock(ptr noundef nonnull align 8 dereferenceable(40) %16) #16
  br label %_ZNSt11unique_lockISt5mutexED2Ev.exit

_ZNSt11unique_lockISt5mutexED2Ev.exit:            ; preds = %11, %15, %17
  call void @llvm.lifetime.end.p0(i64 16, ptr nonnull %2) #16
  resume { ptr, i32 } %12

19:                                               ; preds = %8
  %20 = load i8, ptr %4, align 8, !tbaa !17, !range !20, !noundef !21
  %21 = trunc nuw i8 %20 to i1
  br i1 %21, label %22, label %_ZNSt11unique_lockISt5mutexED2Ev.exit3

22:                                               ; preds = %19
  %23 = load ptr, ptr %2, align 8, !tbaa !12
  %.not.i.i2 = icmp eq ptr %23, null
  br i1 %.not.i.i2, label %_ZNSt11unique_lockISt5mutexED2Ev.exit3, label %24

24:                                               ; preds = %22
  %25 = call noundef i32 @pthread_mutex_unlock(ptr noundef nonnull align 8 dereferenceable(40) %23) #16
  br label %_ZNSt11unique_lockISt5mutexED2Ev.exit3

_ZNSt11unique_lockISt5mutexED2Ev.exit3:           ; preds = %19, %22, %24
  call void @llvm.lifetime.end.p0(i64 16, ptr nonnull %2) #16
  ret void
}